; Function Attrs: nounwind uwtable
define hidden noundef zeroext i1 @SDL_GetRectEnclosingPointsFloat_REAL(ptr noundef readonly captures(address_is_null) %0, i32 noundef %1, ptr noundef readonly captures(address_is_null) %2, ptr noundef writeonly captures(address_is_null) %3) local_unnamed_addr #0 {
  %.not = icmp eq ptr %0, null
  br i1 %.not, label %5, label %7

5:                                                ; preds = %4
  %6 = tail call zeroext i1 (ptr, ...) @SDL_SetError_REAL(ptr noundef nonnull @.str, ptr noundef nonnull @.str.10) #5
  br label %.thread

7:                                                ; preds = %4
  %8 = icmp slt i32 %1, 1
  br i1 %8, label %9, label %11

9:                                                ; preds = %7
  %10 = tail call zeroext i1 (ptr, ...) @SDL_SetError_REAL(ptr noundef nonnull @.str, ptr noundef nonnull @.str.11) #5
  br label %.thread

11:                                               ; preds = %7
  %.not112 = icmp eq ptr %2, null
  br i1 %.not112, label %54, label %12

12:                                               ; preds = %11
  %13 = load float, ptr %2, align 4
  %14 = getelementptr inbounds nuw i8, ptr %2, i64 4
  %15 = load float, ptr %14, align 4
  %16 = getelementptr inbounds nuw i8, ptr %2, i64 8
  %17 = load float, ptr %16, align 4
  %18 = fadd float %13, %17
  %19 = getelementptr inbounds nuw i8, ptr %2, i64 12
  %20 = load float, ptr %19, align 4
  %21 = fadd float %15, %20
  %22 = fcmp olt float %17, 0.000000e+00
  %23 = fcmp olt float %20, 0.000000e+00
  %or.cond125 = select i1 %22, i1 true, i1 %23
  br i1 %or.cond125, label %.thread, label %.lr.ph

.lr.ph:                                           ; preds = %12
  %.not114 = icmp eq ptr %3, null
  %wide.trip.count160 = zext nneg i32 %1 to i64
  br i1 %.not114, label %.lr.ph.split.us, label %.lr.ph.split

.lr.ph.split.us:                                  ; preds = %.lr.ph, %.lr.ph.split.us
  %indvars.iv158 = phi i64 [ %indvars.iv.next159, %.lr.ph.split.us ], [ 0, %.lr.ph ]
  %24 = getelementptr inbounds nuw %struct.SDL_FPoint, ptr %0, i64 %indvars.iv158
  %25 = load float, ptr %24, align 4
  %26 = getelementptr inbounds nuw i8, ptr %24, i64 4
  %27 = load float, ptr %26, align 4
  %28 = fcmp uge float %25, %13
  %29 = fcmp ule float %25, %18
  %or.cond.us.not186 = and i1 %28, %29
  %30 = fcmp uge float %27, %15
  %or.cond116.us.not183 = select i1 %or.cond.us.not186, i1 %30, i1 false
  %31 = fcmp ule float %27, %21
  %or.cond117.us.not = select i1 %or.cond116.us.not183, i1 %31, i1 false
  %indvars.iv.next159 = add nuw nsw i64 %indvars.iv158, 1
  %exitcond161.not = icmp eq i64 %indvars.iv.next159, %wide.trip.count160
  %or.cond187 = select i1 %or.cond117.us.not, i1 true, i1 %exitcond161.not
  br i1 %or.cond187, label %.thread, label %.lr.ph.split.us, !llvm.loop !8

.lr.ph.split:                                     ; preds = %.lr.ph, %52
  %indvars.iv = phi i64 [ %indvars.iv.next, %52 ], [ 0, %.lr.ph ]
  %.177136 = phi float [ %.2, %52 ], [ 0.000000e+00, %.lr.ph ]
  %.179135 = phi float [ %.280, %52 ], [ 0.000000e+00, %.lr.ph ]
  %.185134 = phi float [ %.286, %52 ], [ 0.000000e+00, %.lr.ph ]
  %.091133 = phi i8 [ %.192, %52 ], [ 0, %.lr.ph ]
  %.197131 = phi float [ %.298, %52 ], [ 0.000000e+00, %.lr.ph ]
  %32 = getelementptr inbounds nuw %struct.SDL_FPoint, ptr %0, i64 %indvars.iv
  %33 = load float, ptr %32, align 4
  %34 = getelementptr inbounds nuw i8, ptr %32, i64 4
  %35 = load float, ptr %34, align 4
  %36 = fcmp olt float %33, %13
  %37 = fcmp ogt float %33, %18
  %or.cond = or i1 %36, %37
  %38 = fcmp olt float %35, %15
  %or.cond116 = select i1 %or.cond, i1 true, i1 %38
  %39 = fcmp ogt float %35, %21
  %or.cond117 = select i1 %or.cond116, i1 true, i1 %39
  br i1 %or.cond117, label %52, label %40

40:                                               ; preds = %.lr.ph.split
  %41 = trunc nuw i8 %.091133 to i1
  br i1 %41, label %42, label %52

42:                                               ; preds = %40
  %43 = fcmp olt float %33, %.177136
  br i1 %43, label %47, label %44

44:                                               ; preds = %42
  %45 = fcmp ogt float %33, %.185134
  br i1 %45, label %46, label %47

46:                                               ; preds = %44
  br label %47

47:                                               ; preds = %42, %44, %46
  %.387 = phi float [ %33, %46 ], [ %.185134, %44 ], [ %.185134, %42 ]
  %.3 = phi float [ %.177136, %46 ], [ %.177136, %44 ], [ %33, %42 ]
  %48 = fcmp olt float %35, %.179135
  br i1 %48, label %52, label %49

49:                                               ; preds = %47
  %50 = fcmp ogt float %35, %.197131
  br i1 %50, label %51, label %52

51:                                               ; preds = %49
  br label %52

52:                                               ; preds = %40, %47, %51, %49, %.lr.ph.split
  %.298 = phi float [ %.197131, %.lr.ph.split ], [ %35, %51 ], [ %.197131, %49 ], [ %.197131, %47 ], [ %35, %40 ]
  %.192 = phi i8 [ %.091133, %.lr.ph.split ], [ 1, %51 ], [ 1, %49 ], [ 1, %47 ], [ 1, %40 ]
  %.286 = phi float [ %.185134, %.lr.ph.split ], [ %.387, %51 ], [ %.387, %49 ], [ %.387, %47 ], [ %33, %40 ]
  %.280 = phi float [ %.179135, %.lr.ph.split ], [ %.179135, %51 ], [ %.179135, %49 ], [ %35, %47 ], [ %35, %40 ]
  %.2 = phi float [ %.177136, %.lr.ph.split ], [ %.3, %51 ], [ %.3, %49 ], [ %.3, %47 ], [ %33, %40 ]
  %indvars.iv.next = add nuw nsw i64 %indvars.iv, 1
  %exitcond.not = icmp eq i64 %indvars.iv.next, %wide.trip.count160
  br i1 %exitcond.not, label %._crit_edge, label %.lr.ph.split, !llvm.loop !8

._crit_edge:                                      ; preds = %52
  %53 = trunc nuw i8 %.192 to i1
  br i1 %53, label %.loopexit, label %.thread

54:                                               ; preds = %11
  %.not113 = icmp eq ptr %3, null
  br i1 %.not113, label %.thread, label %55

55:                                               ; preds = %54
  %56 = load float, ptr %0, align 4
  %57 = getelementptr inbounds nuw i8, ptr %0, i64 4
  %58 = load float, ptr %57, align 4
  %.not156 = icmp eq i32 %1, 1
  br i1 %.not156, label %.loopexit.thread, label %.lr.ph151.preheader

.lr.ph151.preheader:                              ; preds = %55
  %wide.trip.count165 = zext nneg i32 %1 to i64
  br label %.lr.ph151

.lr.ph151:                                        ; preds = %.lr.ph151.preheader, %72
  %indvars.iv162 = phi i64 [ 1, %.lr.ph151.preheader ], [ %indvars.iv.next163, %72 ]
  %.5149 = phi float [ %56, %.lr.ph151.preheader ], [ %.6, %72 ]
  %.482148 = phi float [ %58, %.lr.ph151.preheader ], [ %.583, %72 ]
  %.589147 = phi float [ %56, %.lr.ph151.preheader ], [ %.690, %72 ]
  %.4100145 = phi float [ %58, %.lr.ph151.preheader ], [ %.5101, %72 ]
  %59 = getelementptr inbounds nuw %struct.SDL_FPoint, ptr %0, i64 %indvars.iv162
  %60 = load float, ptr %59, align 4
  %61 = getelementptr inbounds nuw i8, ptr %59, i64 4
  %62 = load float, ptr %61, align 4
  %63 = fcmp olt float %60, %.5149
  br i1 %63, label %67, label %64

64:                                               ; preds = %.lr.ph151
  %65 = fcmp ogt float %60, %.589147
  br i1 %65, label %66, label %67

66:                                               ; preds = %64
  br label %67

67:                                               ; preds = %.lr.ph151, %64, %66
  %.690 = phi float [ %60, %66 ], [ %.589147, %64 ], [ %.589147, %.lr.ph151 ]
  %.6 = phi float [ %.5149, %66 ], [ %.5149, %64 ], [ %60, %.lr.ph151 ]
  %68 = fcmp olt float %62, %.482148
  br i1 %68, label %72, label %69

69:                                               ; preds = %67
  %70 = fcmp ogt float %62, %.4100145
  br i1 %70, label %71, label %72

71:                                               ; preds = %69
  br label %72

72:                                               ; preds = %67, %71, %69
  %.5101 = phi float [ %62, %71 ], [ %.4100145, %69 ], [ %.4100145, %67 ]
  %.583 = phi float [ %.482148, %71 ], [ %.482148, %69 ], [ %62, %67 ]
  %indvars.iv.next163 = add nuw nsw i64 %indvars.iv162, 1
  %exitcond166.not = icmp eq i64 %indvars.iv.next163, %wide.trip.count165
  br i1 %exitcond166.not, label %.loopexit, label %.lr.ph151, !llvm.loop !9

.loopexit:                                        ; preds = %72, %._crit_edge
  %.399 = phi float [ %.298, %._crit_edge ], [ %.5101, %72 ]
  %.488 = phi float [ %.286, %._crit_edge ], [ %.690, %72 ]
  %.381 = phi float [ %.280, %._crit_edge ], [ %.583, %72 ]
  %.4 = phi float [ %.2, %._crit_edge ], [ %.6, %72 ]
  %.not115 = icmp eq ptr %3, null
  br i1 %.not115, label %.thread, label %.loopexit.thread

.loopexit.thread:                                 ; preds = %55, %.loopexit
  %.4180 = phi float [ %.4, %.loopexit ], [ %56, %55 ]
  %.381179 = phi float [ %.381, %.loopexit ], [ %58, %55 ]
  %.488178 = phi float [ %.488, %.loopexit ], [ %56, %55 ]
  %.399177 = phi float [ %.399, %.loopexit ], [ %58, %55 ]
  store float %.4180, ptr %3, align 4
  %73 = getelementptr inbounds nuw i8, ptr %3, i64 4
  store float %.381179, ptr %73, align 4
  %74 = fsub float %.488178, %.4180
  %75 = fadd float %74, 0.000000e+00
  %76 = getelementptr inbounds nuw i8, ptr %3, i64 8
  store float %75, ptr %76, align 4
  %77 = fsub float %.399177, %.381179
  %78 = fadd float %77, 0.000000e+00
  %79 = getelementptr inbounds nuw i8, ptr %3, i64 12
  store float %78, ptr %79, align 4
  br label %.thread

.thread:                                          ; preds = %.lr.ph.split.us, %12, %.loopexit, %.loopexit.thread, %54, %._crit_edge, %9, %5
  %.0 = phi i1 [ false, %9 ], [ false, %._crit_edge ], [ false, %5 ], [ true, %54 ], [ true, %.loopexit.thread ], [ true, %.loopexit ], [ false, %12 ], [ %or.cond117.us.not, %.lr.ph.split.us ]
  ret i1 %.0
}